; ModuleID = '53/1042.c'
source_filename = "53/1042.c"
target datalayout = "e-m:e-p270:32:32-p271:32:32-p272:64:64-i64:64-f80:128-n8:16:32:64-S128"
target triple = "x86_64-pc-linux-gnu"

@.str = private unnamed_addr constant [3 x i8] c"%d\00", align 1
@.str.1 = private unnamed_addr constant [4 x i8] c"%d,\00", align 1

; Function Attrs: noinline nounwind uwtable
define dso_local i32 @main() #0 {
  %1 = alloca i32, align 4
  %2 = alloca i32, align 4
  %3 = alloca i32, align 4
  %4 = alloca i32, align 4
  %5 = alloca [300 x i32], align 16
  %6 = alloca [300 x i32], align 16
  %7 = alloca i32, align 4
  %8 = alloca i32, align 4
  store i32 0, i32* %1, align 4
  store i32 0, i32* %8, align 4
  %9 = call i32 (i8*, ...) @__isoc99_scanf(i8* getelementptr inbounds ([3 x i8], [3 x i8]* @.str, i64 0, i64 0), i32* %7)
  %10 = getelementptr inbounds [300 x i32], [300 x i32]* %5, i64 0, i64 0
  %11 = call i32 (i8*, ...) @__isoc99_scanf(i8* getelementptr inbounds ([3 x i8], [3 x i8]* @.str, i64 0, i64 0), i32* %10)
  store i32 1, i32* %2, align 4
  br label %12

12:                                               ; preds = %43, %0
  %13 = load i32, i32* %2, align 4
  %14 = load i32, i32* %7, align 4
  %15 = icmp slt i32 %13, %14
  br i1 %15, label %16, label %46

16:                                               ; preds = %12
  %17 = call i32 (i8*, ...) @__isoc99_scanf(i8* getelementptr inbounds ([3 x i8], [3 x i8]* @.str, i64 0, i64 0), i32* %4)
  store i32 0, i32* %3, align 4
  br label %18

18:                                               ; preds = %39, %16
  %19 = load i32, i32* %3, align 4
  %20 = load i32, i32* %2, align 4
  %21 = icmp slt i32 %19, %20
  br i1 %21, label %22, label %42

22:                                               ; preds = %18
  %23 = load i32, i32* %4, align 4
  %24 = load i32, i32* %3, align 4
  %25 = sext i32 %24 to i64
  %26 = getelementptr inbounds [300 x i32], [300 x i32]* %5, i64 0, i64 %25
  %27 = load i32, i32* %26, align 4
  %28 = icmp eq i32 %23, %27
  br i1 %28, label %29, label %33

29:                                               ; preds = %22
  %30 = load i32, i32* %2, align 4
  %31 = sext i32 %30 to i64
  %32 = getelementptr inbounds [300 x i32], [300 x i32]* %5, i64 0, i64 %31
  store i32 0, i32* %32, align 4
  br label %42

33:                                               ; preds = %22
  %34 = load i32, i32* %4, align 4
  %35 = load i32, i32* %2, align 4
  %36 = sext i32 %35 to i64
  %37 = getelementptr inbounds [300 x i32], [300 x i32]* %5, i64 0, i64 %36
  store i32 %34, i32* %37, align 4
  br label %38

38:                                               ; preds = %33
  br label %39

39:                                               ; preds = %38
  %40 = load i32, i32* %3, align 4
  %41 = add nsw i32 %40, 1
  store i32 %41, i32* %3, align 4
  br label %18

42:                                               ; preds = %29, %18
  br label %43

43:                                               ; preds = %42
  %44 = load i32, i32* %2, align 4
  %45 = add nsw i32 %44, 1
  store i32 %45, i32* %2, align 4
  br label %12

46:                                               ; preds = %12
  store i32 0, i32* %2, align 4
  br label %47

47:                                               ; preds = %69, %46
  %48 = load i32, i32* %2, align 4
  %49 = load i32, i32* %7, align 4
  %50 = icmp slt i32 %48, %49
  br i1 %50, label %51, label %72

51:                                               ; preds = %47
  %52 = load i32, i32* %2, align 4
  %53 = sext i32 %52 to i64
  %54 = getelementptr inbounds [300 x i32], [300 x i32]* %5, i64 0, i64 %53
  %55 = load i32, i32* %54, align 4
  %56 = icmp ne i32 %55, 0
  br i1 %56, label %57, label %68

57:                                               ; preds = %51
  %58 = load i32, i32* %8, align 4
  %59 = add nsw i32 %58, 1
  store i32 %59, i32* %8, align 4
  %60 = load i32, i32* %2, align 4
  %61 = sext i32 %60 to i64
  %62 = getelementptr inbounds [300 x i32], [300 x i32]* %5, i64 0, i64 %61
  %63 = load i32, i32* %62, align 4
  %64 = load i32, i32* %8, align 4
  %65 = sub nsw i32 %64, 1
  %66 = sext i32 %65 to i64
  %67 = getelementptr inbounds [300 x i32], [300 x i32]* %6, i64 0, i64 %66
  store i32 %63, i32* %67, align 4
  br label %68

68:                                               ; preds = %57, %51
  br label %69

69:                                               ; preds = %68
  %70 = load i32, i32* %2, align 4
  %71 = add nsw i32 %70, 1
  store i32 %71, i32* %2, align 4
  br label %47

72:                                               ; preds = %47
  store i32 0, i32* %2, align 4
  br label %73

73:                                               ; preds = %84, %72
  %74 = load i32, i32* %2, align 4
  %75 = load i32, i32* %8, align 4
  %76 = sub nsw i32 %75, 1
  %77 = icmp slt i32 %74, %76
  br i1 %77, label %78, label %87

78:                                               ; preds = %73
  %79 = load i32, i32* %2, align 4
  %80 = sext i32 %79 to i64
  %81 = getelementptr inbounds [300 x i32], [300 x i32]* %6, i64 0, i64 %80
  %82 = load i32, i32* %81, align 4
  %83 = call i32 (i8*, ...) @printf(i8* getelementptr inbounds ([4 x i8], [4 x i8]* @.str.1, i64 0, i64 0), i32 %82)
  br label %84

84:                                               ; preds = %78
  %85 = load i32, i32* %2, align 4
  %86 = add nsw i32 %85, 1
  store i32 %86, i32* %2, align 4
  br label %73

87:                                               ; preds = %73
  %88 = load i32, i32* %8, align 4
  %89 = sub nsw i32 %88, 1
  %90 = sext i32 %89 to i64
  %91 = getelementptr inbounds [300 x i32], [300 x i32]* %6, i64 0, i64 %90
  %92 = load i32, i32* %91, align 4
  %93 = call i32 (i8*, ...) @printf(i8* getelementptr inbounds ([3 x i8], [3 x i8]* @.str, i64 0, i64 0), i32 %92)
  ret i32 0
}

declare dso_local i32 @__isoc99_scanf(i8*, ...) #1

declare dso_local i32 @printf(i8*, ...) #1


!llvm.module.flags = !{!0}
!llvm.ident = !{!1}

!0 = !{i32 1, !"wchar_size", i32 4}
!1 = !{!"clang version 10.0.0-4ubuntu1 "}
